; ModuleID = '23/1098.c'
source_filename = "23/1098.c"
target datalayout = "e-m:e-p270:32:32-p271:32:32-p272:64:64-i64:64-f80:128-n8:16:32:64-S128"
target triple = "x86_64-pc-linux-gnu"

@.str = private unnamed_addr constant [3 x i8] c"%s\00", align 1
@.str.1 = private unnamed_addr constant [4 x i8] c"%s \00", align 1

; Function Attrs: noinline nounwind uwtable
define dso_local i32 @main() #0 {
  %1 = alloca i32, align 4
  %2 = alloca [100 x [100 x i8]], align 16
  %3 = alloca i32, align 4
  %4 = alloca i32, align 4
  store i32 0, i32* %1, align 4
  store i32 0, i32* %3, align 4
  br label %5

5:                                                ; preds = %13, %0
  %6 = getelementptr inbounds [100 x [100 x i8]], [100 x [100 x i8]]* %2, i64 0, i64 0
  %7 = load i32, i32* %3, align 4
  %8 = sext i32 %7 to i64
  %9 = getelementptr inbounds [100 x i8], [100 x i8]* %6, i64 %8
  %10 = getelementptr inbounds [100 x i8], [100 x i8]* %9, i64 0, i64 0
  %11 = call i32 (i8*, ...) @__isoc99_scanf(i8* getelementptr inbounds ([3 x i8], [3 x i8]* @.str, i64 0, i64 0), i8* %10)
  %12 = icmp ne i32 %11, -1
  br i1 %12, label %13, label %16

13:                                               ; preds = %5
  %14 = load i32, i32* %3, align 4
  %15 = add nsw i32 %14, 1
  store i32 %15, i32* %3, align 4
  br label %5

16:                                               ; preds = %5
  %17 = load i32, i32* %3, align 4
  store i32 %17, i32* %4, align 4
  %18 = load i32, i32* %4, align 4
  %19 = sub nsw i32 %18, 1
  store i32 %19, i32* %3, align 4
  br label %20

20:                                               ; preds = %30, %16
  %21 = load i32, i32* %3, align 4
  %22 = icmp sge i32 %21, 1
  br i1 %22, label %23, label %33

23:                                               ; preds = %20
  %24 = getelementptr inbounds [100 x [100 x i8]], [100 x [100 x i8]]* %2, i64 0, i64 0
  %25 = load i32, i32* %3, align 4
  %26 = sext i32 %25 to i64
  %27 = getelementptr inbounds [100 x i8], [100 x i8]* %24, i64 %26
  %28 = getelementptr inbounds [100 x i8], [100 x i8]* %27, i64 0, i64 0
  %29 = call i32 (i8*, ...) @printf(i8* getelementptr inbounds ([4 x i8], [4 x i8]* @.str.1, i64 0, i64 0), i8* %28)
  br label %30

30:                                               ; preds = %23
  %31 = load i32, i32* %3, align 4
  %32 = add nsw i32 %31, -1
  store i32 %32, i32* %3, align 4
  br label %20

33:                                               ; preds = %20
  %34 = getelementptr inbounds [100 x [100 x i8]], [100 x [100 x i8]]* %2, i64 0, i64 0
  %35 = getelementptr inbounds [100 x i8], [100 x i8]* %34, i64 0, i64 0
  %36 = call i32 (i8*, ...) @printf(i8* getelementptr inbounds ([3 x i8], [3 x i8]* @.str, i64 0, i64 0), i8* %35)
  %37 = load i32, i32* %1, align 4
  ret i32 %37
}

declare dso_local i32 @__isoc99_scanf(i8*, ...) #1

declare dso_local i32 @printf(i8*, ...) #1


!llvm.module.flags = !{!0}
!llvm.ident = !{!1}

!0 = !{i32 1, !"wchar_size", i32 4}
!1 = !{!"clang version 10.0.0-4ubuntu1 "}
